target datalayout = "e-m:e-p270:32:32-p271:32:32-p272:64:64-i64:64-i128:128-f80:128-n8:16:32:64-S128"
target triple = "x86_64-pc-linux-gnu"

%struct._IStateCoder = type { ptr, ptr, ptr, ptr, ptr }
%struct.CMixCoder = type { ptr, ptr, i32, [3 x i32], [3 x i64], [3 x i64], [4 x i64], [4 x %struct._IStateCoder] }

; Function Attrs: nounwind uwtable
define void @MixCoder_Construct(ptr noundef %0, ptr noundef %1) #0 {
  %3 = alloca ptr, align 8
  %4 = alloca ptr, align 8
  %5 = alloca i32, align 4
  store ptr %0, ptr %3, align 8
  store ptr %1, ptr %4, align 8
  %6 = load ptr, ptr %4, align 8
  %7 = load ptr, ptr %3, align 8
  %8 = getelementptr inbounds %struct.CMixCoder, ptr %7, i32 0, i32 0
  store ptr %6, ptr %8, align 8
  %9 = load ptr, ptr %3, align 8
  %10 = getelementptr inbounds %struct.CMixCoder, ptr %9, i32 0, i32 1
  store ptr null, ptr %10, align 8
  %11 = load ptr, ptr %3, align 8
  %12 = getelementptr inbounds %struct.CMixCoder, ptr %11, i32 0, i32 2
  store i32 0, ptr %12, align 8
  store i32 0, ptr %5, align 4
  br label %13

13:                                               ; preds = %23, %2
  %14 = load i32, ptr %5, align 4
  %15 = icmp slt i32 %14, 4
  br i1 %15, label %16, label %26

16:                                               ; preds = %13
  %17 = load ptr, ptr %3, align 8
  %18 = getelementptr inbounds %struct.CMixCoder, ptr %17, i32 0, i32 7
  %19 = load i32, ptr %5, align 4
  %20 = sext i32 %19 to i64
  %21 = getelementptr inbounds [4 x %struct._IStateCoder], ptr %18, i64 0, i64 %20
  %22 = getelementptr inbounds %struct._IStateCoder, ptr %21, i32 0, i32 0
  store ptr null, ptr %22, align 8
  br label %23

23:                                               ; preds = %16
  %24 = load i32, ptr %5, align 4
  %25 = add nsw i32 %24, 1
  store i32 %25, ptr %5, align 4
  br label %13

26:                                               ; preds = %13
  ret void
}