; Function Attrs: nofree norecurse nosync nounwind memory(argmem: write) uwtable
define void @MixCoder_Construct(ptr noundef writeonly captures(none) initializes((0, 20)) %0, ptr noundef %1) local_unnamed_addr #4 {
  store ptr %1, ptr %0, align 8
  %3 = getelementptr inbounds nuw i8, ptr %0, i64 8
  store ptr null, ptr %3, align 8
  %4 = getelementptr inbounds nuw i8, ptr %0, i64 16
  store i32 0, ptr %4, align 8
  %5 = getelementptr inbounds nuw i8, ptr %0, i64 112
  br label %6

6:                                                ; preds = %2, %6
  %indvars.iv = phi i64 [ 0, %2 ], [ %indvars.iv.next, %6 ]
  %7 = getelementptr inbounds nuw [4 x %struct._IStateCoder], ptr %5, i64 0, i64 %indvars.iv
  store ptr null, ptr %7, align 8
  %indvars.iv.next = add nuw nsw i64 %indvars.iv, 1
  %exitcond.not = icmp eq i64 %indvars.iv.next, 4
  br i1 %exitcond.not, label %8, label %6

8:                                                ; preds = %6
  ret void
}